target datalayout = "e-m:e-p270:32:32-p271:32:32-p272:64:64-i64:64-i128:128-f80:128-n8:16:32:64-S128"
target triple = "x86_64-unknown-linux-gnu"

%"class.icu_75::UnicodeString" = type { %"class.icu_75::Replaceable", %"union.icu_75::UnicodeString::StackBufferOrFields" }
%"class.icu_75::Replaceable" = type { %"class.icu_75::UObject" }
%"class.icu_75::UObject" = type { ptr }
%"union.icu_75::UnicodeString::StackBufferOrFields" = type { %struct.anon.0, [32 x i8] }
%struct.anon.0 = type { i16, i32, i32, ptr }
%"struct.icu_75::UInitOnce" = type { %"struct.std::atomic", i32 }
%"struct.std::atomic" = type { %"struct.std::__atomic_base" }
%"struct.std::__atomic_base" = type { i32 }
%"class.icu_75::OlsonTimeZone" = type { %"class.icu_75::BasicTimeZone", i16, i16, i16, ptr, ptr, ptr, i16, ptr, ptr, ptr, double, i32, ptr, ptr, ptr, i16, ptr, ptr, i16, ptr, %"struct.icu_75::UInitOnce" }
%"class.icu_75::BasicTimeZone" = type { %"class.icu_75::TimeZone" }
%"class.icu_75::TimeZone" = type { %"class.icu_75::UObject", %"class.icu_75::UnicodeString" }

@_ZTIN6icu_758TimeZoneE = external constant ptr
@_ZTIN6icu_7513OlsonTimeZoneE = external constant ptr

; Function Attrs: mustprogress nounwind uwtable
define linkonce_odr noundef ptr @_ZNK6icu_7513OlsonTimeZone14getCanonicalIDEv(ptr noundef nonnull align 8 dereferenceable(224) %this) #1 comdat align 2 {
entry:
  %this.addr = alloca ptr, align 8
  store ptr %this, ptr %this.addr, align 8
  %this1 = load ptr, ptr %this.addr, align 8
  %canonicalID = getelementptr inbounds %"class.icu_75::OlsonTimeZone", ptr %this1, i32 0, i32 13
  %0 = load ptr, ptr %canonicalID, align 8
  ret ptr %0
}

; Function Attrs: mustprogress uwtable
define noundef ptr @_ZN6icu_758ZoneMeta10getShortIDERKNS_8TimeZoneE(ptr noundef nonnull align 8 dereferenceable(72) %tz) #0 align 2 {
entry:
  %retval = alloca ptr, align 8
  %tz.addr = alloca ptr, align 8
  %canonicalID = alloca ptr, align 8
  %otz = alloca ptr, align 8
  store ptr %tz, ptr %tz.addr, align 8
  store ptr null, ptr %canonicalID, align 8
  %0 = load ptr, ptr %tz.addr, align 8
  %1 = icmp eq ptr %0, null
  br i1 %1, label %dynamic_cast.null, label %dynamic_cast.notnull

dynamic_cast.notnull:                             ; preds = %entry
  %2 = call ptr @__dynamic_cast(ptr %0, ptr @_ZTIN6icu_758TimeZoneE, ptr @_ZTIN6icu_7513OlsonTimeZoneE, i64 0) #10
  br label %dynamic_cast.end

dynamic_cast.null:                                ; preds = %entry
  br label %dynamic_cast.end

dynamic_cast.end:                                 ; preds = %dynamic_cast.null, %dynamic_cast.notnull
  %3 = phi ptr [ %2, %dynamic_cast.notnull ], [ null, %dynamic_cast.null ]
  %cmp = icmp ne ptr %3, null
  br i1 %cmp, label %if.then, label %if.end

if.then:                                          ; preds = %dynamic_cast.end
  %4 = load ptr, ptr %tz.addr, align 8
  store ptr %4, ptr %otz, align 8
  %5 = load ptr, ptr %otz, align 8
  %call = call noundef ptr @_ZNK6icu_7513OlsonTimeZone14getCanonicalIDEv(ptr noundef nonnull align 8 dereferenceable(224) %5)
  store ptr %call, ptr %canonicalID, align 8
  br label %if.end

if.end:                                           ; preds = %if.then, %dynamic_cast.end
  %6 = load ptr, ptr %canonicalID, align 8
  %cmp1 = icmp eq ptr %6, null
  br i1 %cmp1, label %if.then2, label %if.end3

if.then2:                                         ; preds = %if.end
  store ptr null, ptr %retval, align 8
  br label %return

if.end3:                                          ; preds = %if.end
  %7 = load ptr, ptr %canonicalID, align 8
  %call4 = call noundef ptr @_ZN6icu_758ZoneMeta23getShortIDFromCanonicalEPKDs(ptr noundef %7)
  store ptr %call4, ptr %retval, align 8
  br label %return

return:                                           ; preds = %if.end3, %if.then2
  %8 = load ptr, ptr %retval, align 8
  ret ptr %8
}