; Function Attrs: mustprogress uwtable
define noundef ptr @_ZN6icu_758ZoneMeta10getShortIDERKNS_8TimeZoneE(ptr noundef nonnull readonly align 8 dereferenceable(72) %tz) local_unnamed_addr #0 align 2 {
entry:
  %0 = tail call ptr @__dynamic_cast(ptr nonnull %tz, ptr nonnull @_ZTIN6icu_758TimeZoneE, ptr nonnull @_ZTIN6icu_7513OlsonTimeZoneE, i64 0) #12
  %cmp.not = icmp eq ptr %0, null
  br i1 %cmp.not, label %return, label %if.end

if.end:                                           ; preds = %entry
  %canonicalID.i = getelementptr inbounds i8, ptr %tz, i64 152
  %1 = load ptr, ptr %canonicalID.i, align 8
  %cmp1 = icmp eq ptr %1, null
  br i1 %cmp1, label %return, label %if.end3

if.end3:                                          ; preds = %if.end
  %call4 = tail call noundef ptr @_ZN6icu_758ZoneMeta23getShortIDFromCanonicalEPKDs(ptr noundef nonnull %1)
  br label %return

return:                                           ; preds = %entry, %if.end, %if.end3
  %retval.0 = phi ptr [ %call4, %if.end3 ], [ null, %if.end ], [ null, %entry ]
  ret ptr %retval.0
}